; Function Attrs: mustprogress uwtable
define internal fastcc void @_ZN4ncnnL25get_optimal_tile_mnk_int8EiiiRiS0_S0_i(i32 noundef %0, i32 noundef %1, i32 noundef %2, ptr noundef nonnull align 4 captures(none) dereferenceable(4) initializes((0, 4)) %3, ptr noundef nonnull writeonly align 4 captures(none) dereferenceable(4) %4, ptr noundef nonnull writeonly align 4 captures(none) dereferenceable(4) initializes((0, 4)) %5, i32 noundef %6) unnamed_addr #2 {
  %8 = tail call noundef i32 @_ZN4ncnn25get_cpu_level2_cache_sizeEv()
  %9 = ashr i32 %8, 1
  %10 = sext i32 %9 to i64
  %11 = icmp eq i32 %6, 0
  br i1 %11, label %12, label %14

12:                                               ; preds = %7
  %13 = tail call noundef i32 @_ZN4ncnn26get_physical_big_cpu_countEv()
  br label %14

14:                                               ; preds = %12, %7
  %.0 = phi i32 [ %13, %12 ], [ %6, %7 ]
  %15 = uitofp i64 %10 to float
  %16 = fmul fast float %15, 0x3FD5555560000000
  %17 = tail call fast noundef float @llvm.sqrt.f32(float %16)
  %18 = fptosi float %17 to i32
  %19 = sdiv i32 %18, 4
  %20 = shl nsw i32 %19, 2
  %.sroa.speculated86 = tail call i32 @llvm.smax.i32(i32 %20, i32 4)
  store i32 %.sroa.speculated86, ptr %3, align 4, !tbaa !75
  %21 = tail call noundef i32 @_ZN4ncnn22get_physical_cpu_countEv()
  %.sroa.speculated82 = tail call i32 @llvm.smin.i32(i32 %21, i32 %.0)
  %22 = load i32, ptr %3, align 4, !tbaa !75
  %23 = mul nsw i32 %22, %.sroa.speculated82
  %24 = add i32 %0, -1
  %25 = add i32 %24, %23
  %26 = sdiv i32 %25, %23
  %27 = add i32 %24, %26
  %28 = sdiv i32 %27, %26
  %29 = add nsw i32 %28, 3
  %30 = sdiv i32 %29, 4
  %31 = shl nsw i32 %30, 2
  %.sroa.speculated78 = tail call i32 @llvm.smin.i32(i32 %31, i32 %23)
  %32 = icmp sgt i32 %.0, 1
  br i1 %32, label %33, label %37

33:                                               ; preds = %14
  %34 = sdiv i32 %.sroa.speculated78, %.0
  %.sroa.speculated68 = tail call i32 @llvm.smax.i32(i32 %34, i32 1)
  %35 = add nuw nsw i32 %.sroa.speculated68, 3
  %36 = and i32 %35, 2147483644
  %.sroa.speculated74 = tail call i32 @llvm.smin.i32(i32 %36, i32 %.sroa.speculated78)
  br label %37

37:                                               ; preds = %33, %14
  %storemerge = phi i32 [ %.sroa.speculated74, %33 ], [ %.sroa.speculated78, %14 ]
  store i32 %storemerge, ptr %3, align 4, !tbaa !75
  %38 = tail call fast noundef float @llvm.sqrt.f32(float %15)
  %39 = sitofp i32 %storemerge to float
  %40 = fsub fast float %38, %39
  %41 = fptosi float %40 to i32
  %42 = sdiv i32 %41, 4
  %43 = shl nsw i32 %42, 2
  %.sroa.speculated62 = tail call i32 @llvm.smax.i32(i32 %43, i32 4)
  %44 = add i32 %2, -1
  %45 = add i32 %44, %.sroa.speculated62
  %46 = sdiv i32 %45, %.sroa.speculated62
  %47 = add i32 %44, %46
  %48 = sdiv i32 %47, %46
  %49 = add nsw i32 %48, 3
  %50 = sdiv i32 %49, 4
  %51 = shl nsw i32 %50, 2
  %.sroa.speculated58 = tail call i32 @llvm.smin.i32(i32 %51, i32 %.sroa.speculated62)
  store i32 %.sroa.speculated58, ptr %5, align 4, !tbaa !75
  %52 = icmp sgt i32 %1, 0
  br i1 %52, label %53, label %72

53:                                               ; preds = %37
  %54 = load i32, ptr %3, align 4, !tbaa !75
  %55 = mul nsw i32 %54, %.sroa.speculated58
  %56 = sext i32 %55 to i64
  %57 = sub nsw i64 %10, %56
  %58 = shl nsw i32 %54, 1
  %59 = add nsw i32 %58, %.sroa.speculated58
  %60 = sext i32 %59 to i64
  %61 = udiv i64 %57, %60
  %62 = trunc i64 %61 to i32
  %63 = sdiv i32 %62, 4
  %64 = shl nsw i32 %63, 2
  %.sroa.speculated52 = tail call i32 @llvm.smax.i32(i32 %64, i32 4)
  %65 = add nsw i32 %1, -1
  %66 = add nuw i32 %65, %.sroa.speculated52
  %67 = udiv i32 %66, %.sroa.speculated52
  %68 = add nuw i32 %65, %67
  %69 = udiv i32 %68, %67
  %70 = add nuw nsw i32 %69, 3
  %71 = and i32 %70, -4
  %.sroa.speculated = tail call i32 @llvm.umin.i32(i32 %71, i32 %.sroa.speculated52)
  store i32 %.sroa.speculated, ptr %4, align 4, !tbaa !75
  br label %72

72:                                               ; preds = %53, %37
  ret void
}